target datalayout = "e-m:e-p270:32:32-p271:32:32-p272:64:64-i64:64-i128:128-f80:128-n8:16:32:64-S128"
target triple = "x86_64-unknown-linux-gnu"

%struct.BlockDriverState = type { i32, i8, i8, i8, i8, i8, ptr, ptr, ptr, %struct.anon, i8, [4096 x i8], [4096 x i8], [4096 x i8], [16 x i8], ptr, [4096 x i8], %struct.BlockLimits, i32, i32, i32, i32, [32 x i8], %union.anon, %union.anon.0, %union.anon.1, i32, [16 x %struct.anon.2], ptr, %struct.anon.3, ptr, ptr, %struct.anon.4, ptr, ptr, i32, ptr, i64, i64, %struct.QemuMutex, %struct.anon.5, %struct.Stat64, i32, i32, i32, i32, i32, i32, %struct.QemuMutex, %struct.anon.6, %struct.CoQueue, i8, i32, i8, %struct.CoMutex, ptr, ptr }
%struct.anon = type { ptr }
%struct.BlockLimits = type { i32, i64, i32, i64, i32, i32, i32, i64, i32, i64, i64, i32, i8, i32, i32, i32, i32, i32, i32, i32 }
%union.anon = type { %struct.QTailQLink }
%struct.QTailQLink = type { ptr, ptr }
%union.anon.0 = type { %struct.QTailQLink }
%union.anon.1 = type { %struct.QTailQLink }
%struct.anon.2 = type { ptr }
%struct.anon.3 = type { ptr }
%struct.anon.4 = type { ptr }
%struct.anon.5 = type { ptr }
%struct.Stat64 = type { i64 }
%struct.QemuMutex = type { %union.pthread_mutex_t, i8 }
%union.pthread_mutex_t = type { %struct.__pthread_mutex_s }
%struct.__pthread_mutex_s = type { i32, i32, i32, i32, i32, i16, i16, %struct.__pthread_internal_list }
%struct.__pthread_internal_list = type { ptr, ptr }
%struct.anon.6 = type { ptr }
%struct.CoQueue = type { %struct.anon.7 }
%struct.anon.7 = type { ptr, ptr }
%struct.CoMutex = type { i32, ptr, %struct.anon.8, %struct.anon.8, i32, i32, ptr }
%struct.anon.8 = type { ptr }
%struct.BDRVQcow2State = type { i32, i32, i32, i32, i32, i32, i32, i32, i32, i32, i32, i32, i32, i32, i64, i64, ptr, ptr, ptr, ptr, i32, %struct.anon.9, ptr, i64, i32, i32, i64, i64, %struct.CoMutex, %struct.Qcow2CryptoHeaderExtension, ptr, ptr, i8, i32, i64, i32, i32, ptr, i32, i64, i64, i32, i32, i8, i32, i32, i64, ptr, ptr, [5 x i8], i8, i32, i8, i64, i64, i64, i64, ptr, %struct.anon.10, %union.anon.11, i8, ptr, ptr, ptr, %struct.CoQueue, i32, ptr, i8, i8, i32 }
%struct.anon.9 = type { ptr }
%struct.Qcow2CryptoHeaderExtension = type { i64, i64 }
%struct.anon.10 = type { ptr }
%union.anon.11 = type { %struct.QTailQLink }

@.str.1 = private unnamed_addr constant [31 x i8] c"../qemu/block/qcow2-refcount.c\00", align 1
@.str.122 = private unnamed_addr constant [24 x i8] c"discard_block_offs != 0\00", align 1
@__PRETTY_FUNCTION__.qcow2_discard_refcount_block = private unnamed_addr constant [63 x i8] c"int qcow2_discard_refcount_block(BlockDriverState *, uint64_t)\00", align 1
@.str.123 = private unnamed_addr constant [92 x i8] c"Invalid refcount: refblock offset %#lx, reftable index %u, block offset %#lx, refcount %#lx\00", align 1
@.str.124 = private unnamed_addr constant [59 x i8] c"Refblock at %#lx is not covered by the refcount structures\00", align 1

; Function Attrs: nounwind sspstrong uwtable
define internal i32 @offset_to_reftable_index(ptr noundef %s, i64 noundef %offset) #0 {
entry:
  %s.addr = alloca ptr, align 8
  %offset.addr = alloca i64, align 8
  store ptr %s, ptr %s.addr, align 8
  store i64 %offset, ptr %offset.addr, align 8
  %0 = load i64, ptr %offset.addr, align 8
  %1 = load ptr, ptr %s.addr, align 8
  %refcount_block_bits = getelementptr inbounds %struct.BDRVQcow2State, ptr %1, i32 0, i32 10
  %2 = load i32, ptr %refcount_block_bits, align 8
  %3 = load ptr, ptr %s.addr, align 8
  %cluster_bits = getelementptr inbounds %struct.BDRVQcow2State, ptr %3, i32 0, i32 0
  %4 = load i32, ptr %cluster_bits, align 8
  %add = add i32 %2, %4
  %sh_prom = zext i32 %add to i64
  %shr = lshr i64 %0, %sh_prom
  %conv = trunc i64 %shr to i32
  ret i32 %conv
}

; Function Attrs: nounwind sspstrong uwtable
define internal i64 @get_refblock_offset(ptr noundef %bs, i64 noundef %offset) #0 {
entry:
  %retval = alloca i64, align 8
  %bs.addr = alloca ptr, align 8
  %offset.addr = alloca i64, align 8
  %s = alloca ptr, align 8
  %index = alloca i32, align 4
  %covering_refblock_offset = alloca i64, align 8
  store ptr %bs, ptr %bs.addr, align 8
  store i64 %offset, ptr %offset.addr, align 8
  %0 = load ptr, ptr %bs.addr, align 8
  %opaque = getelementptr inbounds %struct.BlockDriverState, ptr %0, i32 0, i32 7
  %1 = load ptr, ptr %opaque, align 8
  store ptr %1, ptr %s, align 8
  %2 = load ptr, ptr %s, align 8
  %3 = load i64, ptr %offset.addr, align 8
  %call = call i32 @offset_to_reftable_index(ptr noundef %2, i64 noundef %3)
  store i32 %call, ptr %index, align 4
  store i64 0, ptr %covering_refblock_offset, align 8
  %4 = load i32, ptr %index, align 4
  %5 = load ptr, ptr %s, align 8
  %refcount_table_size = getelementptr inbounds %struct.BDRVQcow2State, ptr %5, i32 0, i32 24
  %6 = load i32, ptr %refcount_table_size, align 8
  %cmp = icmp ult i32 %4, %6
  br i1 %cmp, label %if.then, label %if.end

if.then:                                          ; preds = %entry
  %7 = load ptr, ptr %s, align 8
  %refcount_table = getelementptr inbounds %struct.BDRVQcow2State, ptr %7, i32 0, i32 22
  %8 = load ptr, ptr %refcount_table, align 8
  %9 = load i32, ptr %index, align 4
  %idxprom = zext i32 %9 to i64
  %arrayidx = getelementptr i64, ptr %8, i64 %idxprom
  %10 = load i64, ptr %arrayidx, align 8
  %and = and i64 %10, -512
  store i64 %and, ptr %covering_refblock_offset, align 8
  br label %if.end

if.end:                                           ; preds = %if.then, %entry
  %11 = load i64, ptr %covering_refblock_offset, align 8
  %tobool = icmp ne i64 %11, 0
  br i1 %tobool, label %if.end2, label %if.then1

if.then1:                                         ; preds = %if.end
  %12 = load ptr, ptr %bs.addr, align 8
  %13 = load i64, ptr %offset.addr, align 8
  call void (ptr, i1, i64, i64, ptr, ...) @qcow2_signal_corruption(ptr noundef %12, i1 noundef zeroext true, i64 noundef -1, i64 noundef -1, ptr noundef @.str.124, i64 noundef %13)
  store i64 -5, ptr %retval, align 8
  br label %return

if.end2:                                          ; preds = %if.end
  %14 = load i64, ptr %covering_refblock_offset, align 8
  store i64 %14, ptr %retval, align 8
  br label %return

return:                                           ; preds = %if.end2, %if.then1
  %15 = load i64, ptr %retval, align 8
  ret i64 %15
}

; Function Attrs: nounwind sspstrong uwtable
define internal i32 @qcow2_discard_refcount_block(ptr noundef %bs, i64 noundef %discard_block_offs) #0 {
entry:
  %retval = alloca i32, align 4
  %bs.addr = alloca ptr, align 8
  %discard_block_offs.addr = alloca i64, align 8
  %s = alloca ptr, align 8
  %refblock_offs = alloca i64, align 8
  %cluster_index = alloca i64, align 8
  %block_index = alloca i32, align 4
  %refblock = alloca ptr, align 8
  %ret = alloca i32, align 4
  store ptr %bs, ptr %bs.addr, align 8
  store i64 %discard_block_offs, ptr %discard_block_offs.addr, align 8
  %0 = load ptr, ptr %bs.addr, align 8
  %opaque = getelementptr inbounds %struct.BlockDriverState, ptr %0, i32 0, i32 7
  %1 = load ptr, ptr %opaque, align 8
  store ptr %1, ptr %s, align 8
  %2 = load i64, ptr %discard_block_offs.addr, align 8
  %3 = load ptr, ptr %s, align 8
  %cluster_bits = getelementptr inbounds %struct.BDRVQcow2State, ptr %3, i32 0, i32 0
  %4 = load i32, ptr %cluster_bits, align 8
  %sh_prom = zext i32 %4 to i64
  %shr = lshr i64 %2, %sh_prom
  store i64 %shr, ptr %cluster_index, align 8
  %5 = load i64, ptr %cluster_index, align 8
  %6 = load ptr, ptr %s, align 8
  %refcount_block_size = getelementptr inbounds %struct.BDRVQcow2State, ptr %6, i32 0, i32 11
  %7 = load i32, ptr %refcount_block_size, align 4
  %sub = sub i32 %7, 1
  %conv = sext i32 %sub to i64
  %and = and i64 %5, %conv
  %conv1 = trunc i64 %and to i32
  store i32 %conv1, ptr %block_index, align 4
  %8 = load ptr, ptr %bs.addr, align 8
  %9 = load i64, ptr %discard_block_offs.addr, align 8
  %call = call i64 @get_refblock_offset(ptr noundef %8, i64 noundef %9)
  store i64 %call, ptr %refblock_offs, align 8
  %10 = load i64, ptr %refblock_offs, align 8
  %cmp = icmp slt i64 %10, 0
  br i1 %cmp, label %if.then, label %if.end

if.then:                                          ; preds = %entry
  %11 = load i64, ptr %refblock_offs, align 8
  %conv3 = trunc i64 %11 to i32
  store i32 %conv3, ptr %retval, align 4
  br label %return

if.end:                                           ; preds = %entry
  %12 = load i64, ptr %discard_block_offs.addr, align 8
  %cmp4 = icmp ne i64 %12, 0
  br i1 %cmp4, label %if.then6, label %if.else

if.then6:                                         ; preds = %if.end
  br label %if.end7

if.else:                                          ; preds = %if.end
  call void @__assert_fail(ptr noundef @.str.122, ptr noundef @.str.1, i32 noundef 3585, ptr noundef @__PRETTY_FUNCTION__.qcow2_discard_refcount_block) #10
  unreachable

if.end7:                                          ; preds = %if.then6
  %13 = load ptr, ptr %bs.addr, align 8
  %14 = load ptr, ptr %s, align 8
  %refcount_block_cache = getelementptr inbounds %struct.BDRVQcow2State, ptr %14, i32 0, i32 18
  %15 = load ptr, ptr %refcount_block_cache, align 8
  %16 = load i64, ptr %refblock_offs, align 8
  %call8 = call i32 @qcow2_cache_get(ptr noundef %13, ptr noundef %15, i64 noundef %16, ptr noundef %refblock)
  store i32 %call8, ptr %ret, align 4
  %17 = load i32, ptr %ret, align 4
  %cmp9 = icmp slt i32 %17, 0
  br i1 %cmp9, label %if.then11, label %if.end12

if.then11:                                        ; preds = %if.end7
  %18 = load i32, ptr %ret, align 4
  store i32 %18, ptr %retval, align 4
  br label %return

if.end12:                                         ; preds = %if.end7
  %19 = load ptr, ptr %s, align 8
  %get_refcount = getelementptr inbounds %struct.BDRVQcow2State, ptr %19, i32 0, i32 47
  %20 = load ptr, ptr %get_refcount, align 8
  %21 = load ptr, ptr %refblock, align 8
  %22 = load i32, ptr %block_index, align 4
  %conv13 = zext i32 %22 to i64
  %call14 = call i64 %20(ptr noundef %21, i64 noundef %conv13)
  %cmp15 = icmp ne i64 %call14, 1
  br i1 %cmp15, label %if.then17, label %if.end23

if.then17:                                        ; preds = %if.end12
  %23 = load ptr, ptr %bs.addr, align 8
  %24 = load i64, ptr %refblock_offs, align 8
  %25 = load ptr, ptr %s, align 8
  %26 = load i64, ptr %discard_block_offs.addr, align 8
  %call18 = call i32 @offset_to_reftable_index(ptr noundef %25, i64 noundef %26)
  %27 = load i64, ptr %discard_block_offs.addr, align 8
  %28 = load ptr, ptr %s, align 8
  %get_refcount19 = getelementptr inbounds %struct.BDRVQcow2State, ptr %28, i32 0, i32 47
  %29 = load ptr, ptr %get_refcount19, align 8
  %30 = load ptr, ptr %refblock, align 8
  %31 = load i32, ptr %block_index, align 4
  %conv20 = zext i32 %31 to i64
  %call21 = call i64 %29(ptr noundef %30, i64 noundef %conv20)
  call void (ptr, i1, i64, i64, ptr, ...) @qcow2_signal_corruption(ptr noundef %23, i1 noundef zeroext true, i64 noundef -1, i64 noundef -1, ptr noundef @.str.123, i64 noundef %24, i32 noundef %call18, i64 noundef %27, i64 noundef %call21)
  %32 = load ptr, ptr %s, align 8
  %refcount_block_cache22 = getelementptr inbounds %struct.BDRVQcow2State, ptr %32, i32 0, i32 18
  %33 = load ptr, ptr %refcount_block_cache22, align 8
  call void @qcow2_cache_put(ptr noundef %33, ptr noundef %refblock)
  store i32 -22, ptr %retval, align 4
  br label %return

if.end23:                                         ; preds = %if.end12
  %34 = load ptr, ptr %s, align 8
  %set_refcount = getelementptr inbounds %struct.BDRVQcow2State, ptr %34, i32 0, i32 48
  %35 = load ptr, ptr %set_refcount, align 8
  %36 = load ptr, ptr %refblock, align 8
  %37 = load i32, ptr %block_index, align 4
  %conv24 = zext i32 %37 to i64
  call void %35(ptr noundef %36, i64 noundef %conv24, i64 noundef 0)
  %38 = load ptr, ptr %s, align 8
  %refcount_block_cache25 = getelementptr inbounds %struct.BDRVQcow2State, ptr %38, i32 0, i32 18
  %39 = load ptr, ptr %refcount_block_cache25, align 8
  %40 = load ptr, ptr %refblock, align 8
  call void @qcow2_cache_entry_mark_dirty(ptr noundef %39, ptr noundef %40)
  %41 = load ptr, ptr %s, align 8
  %refcount_block_cache26 = getelementptr inbounds %struct.BDRVQcow2State, ptr %41, i32 0, i32 18
  %42 = load ptr, ptr %refcount_block_cache26, align 8
  call void @qcow2_cache_put(ptr noundef %42, ptr noundef %refblock)
  %43 = load i64, ptr %cluster_index, align 8
  %44 = load ptr, ptr %s, align 8
  %free_cluster_index = getelementptr inbounds %struct.BDRVQcow2State, ptr %44, i32 0, i32 26
  %45 = load i64, ptr %free_cluster_index, align 8
  %cmp27 = icmp ult i64 %43, %45
  br i1 %cmp27, label %if.then29, label %if.end31

if.then29:                                        ; preds = %if.end23
  %46 = load i64, ptr %cluster_index, align 8
  %47 = load ptr, ptr %s, align 8
  %free_cluster_index30 = getelementptr inbounds %struct.BDRVQcow2State, ptr %47, i32 0, i32 26
  store i64 %46, ptr %free_cluster_index30, align 8
  br label %if.end31

if.end31:                                         ; preds = %if.then29, %if.end23
  %48 = load ptr, ptr %s, align 8
  %refcount_block_cache32 = getelementptr inbounds %struct.BDRVQcow2State, ptr %48, i32 0, i32 18
  %49 = load ptr, ptr %refcount_block_cache32, align 8
  %50 = load i64, ptr %discard_block_offs.addr, align 8
  %call33 = call ptr @qcow2_cache_is_table_offset(ptr noundef %49, i64 noundef %50)
  store ptr %call33, ptr %refblock, align 8
  %51 = load ptr, ptr %refblock, align 8
  %tobool = icmp ne ptr %51, null
  br i1 %tobool, label %if.then34, label %if.end36

if.then34:                                        ; preds = %if.end31
  %52 = load ptr, ptr %s, align 8
  %refcount_block_cache35 = getelementptr inbounds %struct.BDRVQcow2State, ptr %52, i32 0, i32 18
  %53 = load ptr, ptr %refcount_block_cache35, align 8
  %54 = load ptr, ptr %refblock, align 8
  call void @qcow2_cache_discard(ptr noundef %53, ptr noundef %54)
  br label %if.end36

if.end36:                                         ; preds = %if.then34, %if.end31
  %55 = load ptr, ptr %bs.addr, align 8
  %56 = load i64, ptr %discard_block_offs.addr, align 8
  %57 = load ptr, ptr %s, align 8
  %cluster_size = getelementptr inbounds %struct.BDRVQcow2State, ptr %57, i32 0, i32 1
  %58 = load i32, ptr %cluster_size, align 4
  %conv37 = sext i32 %58 to i64
  call void @update_refcount_discard(ptr noundef %55, i64 noundef %56, i64 noundef %conv37)
  store i32 0, ptr %retval, align 4
  br label %return

return:                                           ; preds = %if.end36, %if.then17, %if.then11, %if.then
  %59 = load i32, ptr %retval, align 4
  ret i32 %59
}