; Function Attrs: nounwind sspstrong uwtable
define internal i32 @qcow2_discard_refcount_block(ptr noundef %bs, i64 noundef %discard_block_offs) #0 {
entry:
  %refblock = alloca ptr, align 8
  %opaque = getelementptr inbounds nuw i8, ptr %bs, i64 24
  %0 = load ptr, ptr %opaque, align 8
  %1 = load i32, ptr %0, align 8
  %sh_prom = zext nneg i32 %1 to i64
  %shr = lshr i64 %discard_block_offs, %sh_prom
  %refcount_block_size = getelementptr inbounds nuw i8, ptr %0, i64 44
  %2 = load i32, ptr %refcount_block_size, align 4
  %sub = add i32 %2, -1
  %3 = trunc i64 %shr to i32
  %conv1 = and i32 %sub, %3
  %4 = getelementptr i8, ptr %0, i64 40
  %.val7.i = load i32, ptr %4, align 8
  %add.i.i = add i32 %.val7.i, %1
  %sh_prom.i.i = zext nneg i32 %add.i.i to i64
  %shr.i.i = lshr i64 %discard_block_offs, %sh_prom.i.i
  %conv.i.i = trunc i64 %shr.i.i to i32
  %refcount_table_size.i = getelementptr inbounds nuw i8, ptr %0, i64 136
  %5 = load i32, ptr %refcount_table_size.i, align 8
  %cmp.i = icmp ugt i32 %5, %conv.i.i
  br i1 %cmp.i, label %if.end.i, label %get_refblock_offset.exit.thread

if.end.i:                                         ; preds = %entry
  %refcount_table.i = getelementptr inbounds nuw i8, ptr %0, i64 120
  %6 = load ptr, ptr %refcount_table.i, align 8
  %idxprom.i = and i64 %shr.i.i, 4294967295
  %arrayidx.i = getelementptr i64, ptr %6, i64 %idxprom.i
  %7 = load i64, ptr %arrayidx.i, align 8
  %and.i = and i64 %7, -512
  %tobool.not.i = icmp eq i64 %and.i, 0
  br i1 %tobool.not.i, label %get_refblock_offset.exit.thread, label %get_refblock_offset.exit

get_refblock_offset.exit.thread:                  ; preds = %entry, %if.end.i
  tail call void (ptr, i1, i64, i64, ptr, ...) @qcow2_signal_corruption(ptr noundef nonnull %bs, i1 noundef zeroext true, i64 noundef -1, i64 noundef -1, ptr noundef nonnull @.str.124, i64 noundef %discard_block_offs) #17
  br label %if.then

get_refblock_offset.exit:                         ; preds = %if.end.i
  %cmp = icmp slt i64 %7, 0
  br i1 %cmp, label %if.then, label %if.end

if.then:                                          ; preds = %get_refblock_offset.exit.thread, %get_refblock_offset.exit
  %retval.0.i36 = phi i64 [ -5, %get_refblock_offset.exit.thread ], [ %and.i, %get_refblock_offset.exit ]
  %conv3 = trunc i64 %retval.0.i36 to i32
  br label %return

if.end:                                           ; preds = %get_refblock_offset.exit
  %cmp4.not = icmp eq i64 %discard_block_offs, 0
  br i1 %cmp4.not, label %if.else, label %if.end7

if.else:                                          ; preds = %if.end
  tail call void @__assert_fail(ptr noundef nonnull @.str.122, ptr noundef nonnull @.str.1, i32 noundef 3585, ptr noundef nonnull @__PRETTY_FUNCTION__.qcow2_discard_refcount_block) #15
  unreachable

if.end7:                                          ; preds = %if.end
  %refcount_block_cache = getelementptr inbounds nuw i8, ptr %0, i64 88
  %8 = load ptr, ptr %refcount_block_cache, align 8
  %call8 = call i32 @qcow2_cache_get(ptr noundef nonnull %bs, ptr noundef %8, i64 noundef %and.i, ptr noundef nonnull %refblock) #17
  %cmp9 = icmp slt i32 %call8, 0
  br i1 %cmp9, label %return, label %if.end12

if.end12:                                         ; preds = %if.end7
  %get_refcount = getelementptr inbounds nuw i8, ptr %0, i64 328
  %9 = load ptr, ptr %get_refcount, align 8
  %10 = load ptr, ptr %refblock, align 8
  %conv13 = zext i32 %conv1 to i64
  %call14 = call i64 %9(ptr noundef %10, i64 noundef %conv13) #17
  %cmp15.not = icmp eq i64 %call14, 1
  br i1 %cmp15.not, label %if.end23, label %if.then17

if.then17:                                        ; preds = %if.end12
  %.val = load i32, ptr %0, align 8
  %.val33 = load i32, ptr %4, align 8
  %add.i = add i32 %.val33, %.val
  %sh_prom.i = zext nneg i32 %add.i to i64
  %shr.i = lshr i64 %discard_block_offs, %sh_prom.i
  %conv.i = trunc i64 %shr.i to i32
  %11 = load ptr, ptr %get_refcount, align 8
  %12 = load ptr, ptr %refblock, align 8
  %call21 = call i64 %11(ptr noundef %12, i64 noundef %conv13) #17
  call void (ptr, i1, i64, i64, ptr, ...) @qcow2_signal_corruption(ptr noundef nonnull %bs, i1 noundef zeroext true, i64 noundef -1, i64 noundef -1, ptr noundef nonnull @.str.123, i64 noundef %and.i, i32 noundef %conv.i, i64 noundef %discard_block_offs, i64 noundef %call21) #17
  %13 = load ptr, ptr %refcount_block_cache, align 8
  call void @qcow2_cache_put(ptr noundef %13, ptr noundef nonnull %refblock) #17
  br label %return

if.end23:                                         ; preds = %if.end12
  %set_refcount = getelementptr inbounds nuw i8, ptr %0, i64 336
  %14 = load ptr, ptr %set_refcount, align 8
  %15 = load ptr, ptr %refblock, align 8
  call void %14(ptr noundef %15, i64 noundef %conv13, i64 noundef 0) #17
  %16 = load ptr, ptr %refcount_block_cache, align 8
  %17 = load ptr, ptr %refblock, align 8
  call void @qcow2_cache_entry_mark_dirty(ptr noundef %16, ptr noundef %17) #17
  %18 = load ptr, ptr %refcount_block_cache, align 8
  call void @qcow2_cache_put(ptr noundef %18, ptr noundef nonnull %refblock) #17
  %free_cluster_index = getelementptr inbounds nuw i8, ptr %0, i64 144
  %19 = load i64, ptr %free_cluster_index, align 8
  %cmp27 = icmp ult i64 %shr, %19
  br i1 %cmp27, label %if.then29, label %if.end31

if.then29:                                        ; preds = %if.end23
  store i64 %shr, ptr %free_cluster_index, align 8
  br label %if.end31

if.end31:                                         ; preds = %if.then29, %if.end23
  %20 = load ptr, ptr %refcount_block_cache, align 8
  %call33 = call ptr @qcow2_cache_is_table_offset(ptr noundef %20, i64 noundef %discard_block_offs) #17
  store ptr %call33, ptr %refblock, align 8
  %tobool.not = icmp eq ptr %call33, null
  br i1 %tobool.not, label %if.end36, label %if.then34

if.then34:                                        ; preds = %if.end31
  %21 = load ptr, ptr %refcount_block_cache, align 8
  call void @qcow2_cache_discard(ptr noundef %21, ptr noundef nonnull %call33) #17
  br label %if.end36

if.end36:                                         ; preds = %if.then34, %if.end31
  %cluster_size = getelementptr inbounds nuw i8, ptr %0, i64 4
  %22 = load i32, ptr %cluster_size, align 4
  %conv37 = sext i32 %22 to i64
  call fastcc void @update_refcount_discard(ptr noundef nonnull %bs, i64 noundef %discard_block_offs, i64 noundef %conv37)
  br label %return

return:                                           ; preds = %if.end7, %if.end36, %if.then17, %if.then
  %retval.0 = phi i32 [ %conv3, %if.then ], [ -22, %if.then17 ], [ 0, %if.end36 ], [ %call8, %if.end7 ]
  ret i32 %retval.0
}